target datalayout = "e-m:e-p270:32:32-p271:32:32-p272:64:64-i64:64-i128:128-f80:128-n8:16:32:64-S128"
target triple = "x86_64-pc-linux-gnu"

%struct.DecoderPriv = type { %struct.Decoder, ptr, ptr, ptr, ptr, %struct.AVRational, %struct.AVRational, i32, i32, i32, i32, i32, i32, i64, i64, %struct.AVRational, i64, i32, [2 x ptr], ptr, ptr, i32, i32, ptr, [32 x i8], ptr, i32, ptr, i32, ptr, i32, %struct.anon }
%struct.Decoder = type { ptr, i32, ptr, i32, i64, i64, i64 }
%struct.AVRational = type { i32, i32 }
%struct.anon = type { ptr, ptr }

@dec_class = internal constant { ptr, ptr, ptr, i32, i32, i32, i32, ptr, ptr, ptr, ptr, i32, [4 x i8] } { ptr @.str.7, ptr @dec_item_name, ptr null, i32 3932772, i32 0, i32 208, i32 0, ptr null, ptr null, ptr null, ptr null, i32 0, [4 x i8] zeroinitializer }, align 8

; Function Attrs: nounwind uwtable
define internal i32 @dec_alloc(ptr noundef %0, ptr noundef %1, i32 noundef %2) #0 {
  %4 = alloca i32, align 4
  %5 = alloca ptr, align 8
  %6 = alloca ptr, align 8
  %7 = alloca i32, align 4
  %8 = alloca ptr, align 8
  %9 = alloca i32, align 4
  %10 = alloca i32, align 4
  %11 = alloca %struct.AVRational, align 4
  store ptr %0, ptr %5, align 8, !tbaa !62
  store ptr %1, ptr %6, align 8, !tbaa !52
  store i32 %2, ptr %7, align 4, !tbaa !14
  call void @llvm.lifetime.start.p0(i64 8, ptr %8) #11
  call void @llvm.lifetime.start.p0(i64 4, ptr %9) #11
  store i32 0, ptr %9, align 4, !tbaa !14
  %12 = load ptr, ptr %5, align 8, !tbaa !62
  store ptr null, ptr %12, align 8, !tbaa !12
  %13 = call noalias ptr @av_mallocz(i64 noundef 312)
  store ptr %13, ptr %8, align 8, !tbaa !12
  %14 = load ptr, ptr %8, align 8, !tbaa !12
  %15 = icmp ne ptr %14, null
  br i1 %15, label %17, label %16

16:                                               ; preds = %3
  store i32 -12, ptr %4, align 4
  store i32 1, ptr %10, align 4
  br label %75

17:                                               ; preds = %3
  %18 = call ptr @av_frame_alloc()
  %19 = load ptr, ptr %8, align 8, !tbaa !12
  %20 = getelementptr inbounds nuw %struct.DecoderPriv, ptr %19, i32 0, i32 2
  store ptr %18, ptr %20, align 8, !tbaa !64
  %21 = load ptr, ptr %8, align 8, !tbaa !12
  %22 = getelementptr inbounds nuw %struct.DecoderPriv, ptr %21, i32 0, i32 2
  %23 = load ptr, ptr %22, align 8, !tbaa !64
  %24 = icmp ne ptr %23, null
  br i1 %24, label %26, label %25

25:                                               ; preds = %17
  br label %67

26:                                               ; preds = %17
  %27 = call ptr @av_packet_alloc()
  %28 = load ptr, ptr %8, align 8, !tbaa !12
  %29 = getelementptr inbounds nuw %struct.DecoderPriv, ptr %28, i32 0, i32 4
  store ptr %27, ptr %29, align 8, !tbaa !65
  %30 = load ptr, ptr %8, align 8, !tbaa !12
  %31 = getelementptr inbounds nuw %struct.DecoderPriv, ptr %30, i32 0, i32 4
  %32 = load ptr, ptr %31, align 8, !tbaa !65
  %33 = icmp ne ptr %32, null
  br i1 %33, label %35, label %34

34:                                               ; preds = %26
  br label %67

35:                                               ; preds = %26
  %36 = load ptr, ptr %8, align 8, !tbaa !12
  %37 = getelementptr inbounds nuw %struct.DecoderPriv, ptr %36, i32 0, i32 22
  store i32 -1, ptr %37, align 4, !tbaa !66
  %38 = load ptr, ptr %8, align 8, !tbaa !12
  %39 = getelementptr inbounds nuw %struct.DecoderPriv, ptr %38, i32 0, i32 0
  %40 = getelementptr inbounds nuw %struct.Decoder, ptr %39, i32 0, i32 0
  store ptr @dec_class, ptr %40, align 8, !tbaa !67
  %41 = load ptr, ptr %8, align 8, !tbaa !12
  %42 = getelementptr inbounds nuw %struct.DecoderPriv, ptr %41, i32 0, i32 16
  store i64 -9223372036854775808, ptr %42, align 8, !tbaa !68
  %43 = load ptr, ptr %8, align 8, !tbaa !12
  %44 = getelementptr inbounds nuw %struct.DecoderPriv, ptr %43, i32 0, i32 13
  store i64 -9223372036854775808, ptr %44, align 8, !tbaa !69
  %45 = load ptr, ptr %8, align 8, !tbaa !12
  %46 = getelementptr inbounds nuw %struct.DecoderPriv, ptr %45, i32 0, i32 15
  %47 = getelementptr inbounds nuw %struct.AVRational, ptr %11, i32 0, i32 0
  store i32 1, ptr %47, align 4, !tbaa !70
  %48 = getelementptr inbounds nuw %struct.AVRational, ptr %11, i32 0, i32 1
  store i32 1, ptr %48, align 4, !tbaa !71
  call void @llvm.memcpy.p0.p0.i64(ptr align 8 %46, ptr align 4 %11, i64 8, i1 false), !tbaa.struct !51
  %49 = load ptr, ptr %8, align 8, !tbaa !12
  %50 = getelementptr inbounds nuw %struct.DecoderPriv, ptr %49, i32 0, i32 9
  store i32 -1, ptr %50, align 8, !tbaa !72
  %51 = load ptr, ptr %6, align 8, !tbaa !52
  %52 = load ptr, ptr %8, align 8, !tbaa !12
  %53 = load i32, ptr %7, align 4, !tbaa !14
  %54 = call i32 @sch_add_dec(ptr noundef %51, ptr noundef @decoder_thread, ptr noundef %52, i32 noundef %53)
  store i32 %54, ptr %9, align 4, !tbaa !14
  %55 = load i32, ptr %9, align 4, !tbaa !14
  %56 = icmp slt i32 %55, 0
  br i1 %56, label %57, label %58

57:                                               ; preds = %35
  br label %67

58:                                               ; preds = %35
  %59 = load ptr, ptr %6, align 8, !tbaa !52
  %60 = load ptr, ptr %8, align 8, !tbaa !12
  %61 = getelementptr inbounds nuw %struct.DecoderPriv, ptr %60, i32 0, i32 20
  store ptr %59, ptr %61, align 8, !tbaa !50
  %62 = load i32, ptr %9, align 4, !tbaa !14
  %63 = load ptr, ptr %8, align 8, !tbaa !12
  %64 = getelementptr inbounds nuw %struct.DecoderPriv, ptr %63, i32 0, i32 21
  store i32 %62, ptr %64, align 8, !tbaa !40
  %65 = load ptr, ptr %8, align 8, !tbaa !12
  %66 = load ptr, ptr %5, align 8, !tbaa !62
  store ptr %65, ptr %66, align 8, !tbaa !12
  store i32 0, ptr %4, align 4
  store i32 1, ptr %10, align 4
  br label %75

67:                                               ; preds = %57, %34, %25
  call void @dec_free(ptr noundef %8)
  %68 = load i32, ptr %9, align 4, !tbaa !14
  %69 = icmp sge i32 %68, 0
  br i1 %69, label %70, label %71

70:                                               ; preds = %67
  br label %73

71:                                               ; preds = %67
  %72 = load i32, ptr %9, align 4, !tbaa !14
  br label %73

73:                                               ; preds = %71, %70
  %74 = phi i32 [ -12, %70 ], [ %72, %71 ]
  store i32 %74, ptr %4, align 4
  store i32 1, ptr %10, align 4
  br label %75

75:                                               ; preds = %73, %58, %16
  call void @llvm.lifetime.end.p0(i64 4, ptr %9) #11
  call void @llvm.lifetime.end.p0(i64 8, ptr %8) #11
  %76 = load i32, ptr %4, align 4
  ret i32 %76
}