; Function Attrs: nounwind uwtable
define internal fastcc range(i32 -2147483648, 1) i32 @dec_alloc(ptr noundef nonnull writeonly captures(none) initializes((0, 8)) %0, ptr noundef %1, i32 noundef range(i32 0, 2) %2) unnamed_addr #0 {
  %4 = alloca ptr, align 8
  call void @llvm.lifetime.start.p0(i64 8, ptr nonnull %4) #13
  store ptr null, ptr %0, align 8, !tbaa !39
  %5 = tail call noalias ptr @av_mallocz(i64 noundef 312) #13
  store ptr %5, ptr %4, align 8, !tbaa !39
  %.not = icmp eq ptr %5, null
  br i1 %.not, label %25, label %6

6:                                                ; preds = %3
  %7 = tail call ptr @av_frame_alloc() #13
  %8 = getelementptr inbounds nuw i8, ptr %5, i64 64
  store ptr %7, ptr %8, align 8, !tbaa !42
  %.not11 = icmp eq ptr %7, null
  br i1 %.not11, label %24, label %9

9:                                                ; preds = %6
  %10 = tail call ptr @av_packet_alloc() #13
  %11 = getelementptr inbounds nuw i8, ptr %5, i64 80
  store ptr %10, ptr %11, align 8, !tbaa !43
  %.not12 = icmp eq ptr %10, null
  br i1 %.not12, label %24, label %12

12:                                               ; preds = %9
  %13 = getelementptr inbounds nuw i8, ptr %5, i64 204
  store i32 -1, ptr %13, align 4, !tbaa !44
  store ptr @dec_class, ptr %5, align 8, !tbaa !45
  %14 = getelementptr inbounds nuw i8, ptr %5, i64 152
  store i64 -9223372036854775808, ptr %14, align 8, !tbaa !46
  %15 = getelementptr inbounds nuw i8, ptr %5, i64 128
  store i64 -9223372036854775808, ptr %15, align 8, !tbaa !47
  %16 = getelementptr inbounds nuw i8, ptr %5, i64 144
  store i32 1, ptr %16, align 8, !tbaa !27
  %.sroa.2.0..sroa_idx = getelementptr inbounds nuw i8, ptr %5, i64 148
  store i32 1, ptr %.sroa.2.0..sroa_idx, align 4, !tbaa !27
  %17 = getelementptr inbounds nuw i8, ptr %5, i64 112
  store i32 -1, ptr %17, align 8, !tbaa !48
  %18 = tail call i32 @sch_add_dec(ptr noundef %1, ptr noundef nonnull @decoder_thread, ptr noundef nonnull %5, i32 noundef %2) #13
  %19 = icmp slt i32 %18, 0
  br i1 %19, label %23, label %20

20:                                               ; preds = %12
  %21 = getelementptr inbounds nuw i8, ptr %5, i64 192
  store ptr %1, ptr %21, align 8, !tbaa !35
  %22 = getelementptr inbounds nuw i8, ptr %5, i64 200
  store i32 %18, ptr %22, align 8, !tbaa !26
  store ptr %5, ptr %0, align 8, !tbaa !39
  br label %25

23:                                               ; preds = %12
  call void @dec_free(ptr noundef nonnull %4)
  br label %25

24:                                               ; preds = %9, %6
  call void @dec_free(ptr noundef nonnull %4)
  br label %25

25:                                               ; preds = %24, %23, %3, %20
  %.0 = phi i32 [ 0, %20 ], [ -12, %3 ], [ -12, %24 ], [ %18, %23 ]
  call void @llvm.lifetime.end.p0(i64 8, ptr nonnull %4) #13
  ret i32 %.0
}